target datalayout = "e-m:e-p270:32:32-p271:32:32-p272:64:64-i64:64-i128:128-f80:128-n8:16:32:64-S128"
target triple = "x86_64-pc-linux-gnu"

%struct.Abc_Aig_t_ = type { ptr, ptr, ptr, i32, i32, ptr, ptr, ptr, ptr, ptr, ptr, ptr, i32, i32, i32, i32 }
%struct.Vec_Int_t_ = type { i32, i32, ptr }
%struct.Abc_Ntk_t_ = type { i32, i32, ptr, ptr, ptr, ptr, ptr, ptr, ptr, ptr, ptr, ptr, ptr, [11 x i32], i32, i32, i32, i32, ptr, i32, ptr, ptr, i32, i32, i32, double, i32, %struct.Vec_Int_t_, ptr, ptr, ptr, ptr, ptr, float, i32, ptr, ptr, ptr, ptr, ptr, ptr, ptr, ptr, ptr, ptr, ptr, ptr, ptr, ptr, ptr, ptr, ptr, ptr, ptr, ptr, ptr }
%struct.Vec_Ptr_t_ = type { i32, i32, ptr }

; Function Attrs: nounwind uwtable
define ptr @Abc_AigOr(ptr noundef %0, ptr noundef %1, ptr noundef %2) #0 {
  %4 = alloca ptr, align 8
  %5 = alloca ptr, align 8
  %6 = alloca ptr, align 8
  store ptr %0, ptr %4, align 8
  store ptr %1, ptr %5, align 8
  store ptr %2, ptr %6, align 8
  %7 = load ptr, ptr %4, align 8
  %8 = load ptr, ptr %5, align 8
  %9 = call ptr @Abc_ObjNot(ptr noundef %8)
  %10 = load ptr, ptr %6, align 8
  %11 = call ptr @Abc_ObjNot(ptr noundef %10)
  %12 = call ptr @Abc_AigAnd(ptr noundef %7, ptr noundef %9, ptr noundef %11)
  %13 = call ptr @Abc_ObjNot(ptr noundef %12)
  ret ptr %13
}

; Function Attrs: nounwind uwtable
define ptr @Abc_AigXor(ptr noundef %0, ptr noundef %1, ptr noundef %2) #0 {
  %4 = alloca ptr, align 8
  %5 = alloca ptr, align 8
  %6 = alloca ptr, align 8
  store ptr %0, ptr %4, align 8
  store ptr %1, ptr %5, align 8
  store ptr %2, ptr %6, align 8
  %7 = load ptr, ptr %4, align 8
  %8 = load ptr, ptr %4, align 8
  %9 = load ptr, ptr %5, align 8
  %10 = load ptr, ptr %6, align 8
  %11 = call ptr @Abc_ObjNot(ptr noundef %10)
  %12 = call ptr @Abc_AigAnd(ptr noundef %8, ptr noundef %9, ptr noundef %11)
  %13 = load ptr, ptr %4, align 8
  %14 = load ptr, ptr %6, align 8
  %15 = load ptr, ptr %5, align 8
  %16 = call ptr @Abc_ObjNot(ptr noundef %15)
  %17 = call ptr @Abc_AigAnd(ptr noundef %13, ptr noundef %14, ptr noundef %16)
  %18 = call ptr @Abc_AigOr(ptr noundef %7, ptr noundef %12, ptr noundef %17)
  ret ptr %18
}

; Function Attrs: nounwind uwtable
define internal ptr @Abc_ObjNot(ptr noundef %0) #0 {
  %2 = alloca ptr, align 8
  store ptr %0, ptr %2, align 8
  %3 = load ptr, ptr %2, align 8
  %4 = ptrtoint ptr %3 to i64
  %5 = xor i64 %4, 1
  %6 = inttoptr i64 %5 to ptr
  ret ptr %6
}

; Function Attrs: nounwind uwtable
define ptr @Abc_AigConst1(ptr noundef %0) #0 {
  %2 = alloca ptr, align 8
  store ptr %0, ptr %2, align 8
  %3 = load ptr, ptr %2, align 8
  %4 = getelementptr inbounds %struct.Abc_Ntk_t_, ptr %3, i32 0, i32 30
  %5 = load ptr, ptr %4, align 8
  %6 = getelementptr inbounds %struct.Abc_Aig_t_, ptr %5, i32 0, i32 1
  %7 = load ptr, ptr %6, align 8
  ret ptr %7
}

; Function Attrs: nounwind uwtable
define ptr @Abc_AigMiter2(ptr noundef %0, ptr noundef %1) #0 {
  %3 = alloca ptr, align 8
  %4 = alloca ptr, align 8
  %5 = alloca ptr, align 8
  %6 = alloca ptr, align 8
  %7 = alloca i32, align 4
  store ptr %0, ptr %3, align 8
  store ptr %1, ptr %4, align 8
  %8 = load ptr, ptr %3, align 8
  %9 = getelementptr inbounds %struct.Abc_Aig_t_, ptr %8, i32 0, i32 0
  %10 = load ptr, ptr %9, align 8
  %11 = call ptr @Abc_AigConst1(ptr noundef %10)
  %12 = call ptr @Abc_ObjNot(ptr noundef %11)
  store ptr %12, ptr %5, align 8
  store i32 0, ptr %7, align 4
  br label %13

13:                                               ; preds = %41, %2
  %14 = load i32, ptr %7, align 4
  %15 = load ptr, ptr %4, align 8
  %16 = getelementptr inbounds %struct.Vec_Ptr_t_, ptr %15, i32 0, i32 1
  %17 = load i32, ptr %16, align 4
  %18 = icmp slt i32 %14, %17
  br i1 %18, label %19, label %44

19:                                               ; preds = %13
  %20 = load ptr, ptr %3, align 8
  %21 = load ptr, ptr %4, align 8
  %22 = getelementptr inbounds %struct.Vec_Ptr_t_, ptr %21, i32 0, i32 2
  %23 = load ptr, ptr %22, align 8
  %24 = load i32, ptr %7, align 4
  %25 = sext i32 %24 to i64
  %26 = getelementptr inbounds ptr, ptr %23, i64 %25
  %27 = load ptr, ptr %26, align 8
  %28 = load ptr, ptr %4, align 8
  %29 = getelementptr inbounds %struct.Vec_Ptr_t_, ptr %28, i32 0, i32 2
  %30 = load ptr, ptr %29, align 8
  %31 = load i32, ptr %7, align 4
  %32 = add nsw i32 %31, 1
  %33 = sext i32 %32 to i64
  %34 = getelementptr inbounds ptr, ptr %30, i64 %33
  %35 = load ptr, ptr %34, align 8
  %36 = call ptr @Abc_AigXor(ptr noundef %20, ptr noundef %27, ptr noundef %35)
  store ptr %36, ptr %6, align 8
  %37 = load ptr, ptr %3, align 8
  %38 = load ptr, ptr %5, align 8
  %39 = load ptr, ptr %6, align 8
  %40 = call ptr @Abc_AigOr(ptr noundef %37, ptr noundef %38, ptr noundef %39)
  store ptr %40, ptr %5, align 8
  br label %41

41:                                               ; preds = %19
  %42 = load i32, ptr %7, align 4
  %43 = add nsw i32 %42, 2
  store i32 %43, ptr %7, align 4
  br label %13, !llvm.loop !25

44:                                               ; preds = %13
  %45 = load ptr, ptr %5, align 8
  ret ptr %45
}