; Function Attrs: nounwind uwtable
define ptr @Abc_AigMiter2(ptr noundef captures(none) %0, ptr noundef readonly captures(none) %1) local_unnamed_addr #0 {
  %3 = load ptr, ptr %0, align 8
  %4 = getelementptr inbounds nuw i8, ptr %3, i64 256
  %5 = load ptr, ptr %4, align 8
  %6 = getelementptr inbounds nuw i8, ptr %5, i64 8
  %7 = load ptr, ptr %6, align 8
  %8 = getelementptr inbounds nuw i8, ptr %1, i64 4
  %9 = load i32, ptr %8, align 4
  %10 = icmp sgt i32 %9, 0
  br i1 %10, label %.lr.ph, label %._crit_edge

.lr.ph:                                           ; preds = %2
  %11 = getelementptr inbounds nuw i8, ptr %1, i64 8
  br label %12

12:                                               ; preds = %.lr.ph, %12
  %indvars.iv = phi i64 [ 0, %.lr.ph ], [ %indvars.iv.next, %12 ]
  %.012.in.in.in13 = phi ptr [ %7, %.lr.ph ], [ %34, %12 ]
  %13 = load ptr, ptr %11, align 8
  %14 = getelementptr inbounds nuw ptr, ptr %13, i64 %indvars.iv
  %15 = load ptr, ptr %14, align 8
  %16 = or disjoint i64 %indvars.iv, 1
  %17 = getelementptr inbounds nuw ptr, ptr %13, i64 %16
  %18 = load ptr, ptr %17, align 8
  %19 = ptrtoint ptr %18 to i64
  %20 = xor i64 %19, 1
  %21 = inttoptr i64 %20 to ptr
  %22 = tail call ptr @Abc_AigAnd(ptr noundef nonnull %0, ptr noundef %15, ptr noundef %21)
  %23 = ptrtoint ptr %15 to i64
  %24 = xor i64 %23, 1
  %25 = inttoptr i64 %24 to ptr
  %26 = tail call ptr @Abc_AigAnd(ptr noundef nonnull %0, ptr noundef %18, ptr noundef %25)
  %27 = ptrtoint ptr %22 to i64
  %28 = xor i64 %27, 1
  %29 = inttoptr i64 %28 to ptr
  %30 = ptrtoint ptr %26 to i64
  %31 = xor i64 %30, 1
  %32 = inttoptr i64 %31 to ptr
  %33 = tail call ptr @Abc_AigAnd(ptr noundef nonnull %0, ptr noundef %29, ptr noundef %32)
  %34 = tail call ptr @Abc_AigAnd(ptr noundef nonnull %0, ptr noundef %.012.in.in.in13, ptr noundef %33)
  %indvars.iv.next = add nuw nsw i64 %indvars.iv, 2
  %35 = load i32, ptr %8, align 4
  %36 = trunc nuw i64 %indvars.iv.next to i32
  %37 = icmp sgt i32 %35, %36
  br i1 %37, label %12, label %._crit_edge, !llvm.loop !30

._crit_edge:                                      ; preds = %12, %2
  %.012.in.in.in.lcssa = phi ptr [ %7, %2 ], [ %34, %12 ]
  %.012.in.in = ptrtoint ptr %.012.in.in.in.lcssa to i64
  %.012.in = xor i64 %.012.in.in, 1
  %.012 = inttoptr i64 %.012.in to ptr
  ret ptr %.012
}